Certificate:
    Data:
        Version: 3 (0x2)
        Serial Number: 2 (0x2)
        Signature Algorithm: sha1WithRSAEncryption
        Issuer: C=US, ST=MO, L=St Louis, O=Washington Univ, OU=MIR, CN=Steve Moore/emailAddress=smoore@wustl.edu
        Validity
            Not Before: Oct 24 04:44:15 2009 GMT
            Not After : Oct 24 04:44:15 2010 GMT
        Subject: C=US, ST=Illinois, L=Chicago, O=IHE International, OU=Connectathon, CN=xdstest.nist.gov
        Subject Public Key Info:
            Public Key Algorithm: rsaEncryption
            RSA Public Key: (1024 bit)
                Modulus (1024 bit):
                    00:a2:eb:87:a2:28:7c:c5:31:76:17:10:7a:4f:a5:
                    8c:10:74:91:68:1c:22:c9:30:73:d2:48:04:88:6b:
                    3b:70:08:fd:39:22:4e:81:0a:4f:14:aa:85:2e:cf:
                    84:aa:62:17:9e:ad:9c:51:df:2f:42:52:aa:ff:fb:
                    d6:f9:88:b3:df:de:ae:21:47:bc:61:c1:2b:cc:28:
                    54:6d:e1:f7:f5:4d:00:38:19:b3:0f:71:d6:3c:3a:
                    b3:e3:3b:9a:b6:d7:dd:d0:04:07:0f:6f:08:50:87:
                    b4:29:e5:7c:b6:5b:2b:65:e8:e1:be:6c:eb:3f:4a:
                    58:c4:64:f2:e8:57:2b:0f:b3
                Exponent: 65537 (0x10001)
        X509v3 extensions:
            X509v3 Basic Constraints: 
                CA:FALSE
            Netscape Comment: 
                OpenSSL Generated Certificate
            X509v3 Subject Key Identifier: 
                E9:2A:C3:0B:39:75:63:9B:8E:59:AB:50:43:1C:E0:88:BF:1E:36:77
            X509v3 Authority Key Identifier: 
                keyid:23:3C:87:C7:2B:38:F1:6D:04:39:85:B5:76:A7:62:49:EB:09:EF:3C

    Signature Algorithm: sha1WithRSAEncryption
        9d:3c:d1:cf:2a:35:0b:1d:0b:02:75:14:a3:f7:b2:86:d9:09:
        9c:72:31:78:fd:aa:12:ae:0a:da:43:87:b8:9a:b0:14:19:01:
        a9:83:07:21:26:59:6f:b5:ed:e1:f2:56:03:7c:4a:f4:3f:55:
        b8:79:5c:b9:ae:8a:d7:65:5c:f6:05:28:63:d6:1a:38:81:65:
        de:1d:70:b2:ed:1b:9f:d2:64:2e:2c:a4:eb:ca:4b:60:90:f4:
        92:00:81:a2:f5:a4:68:6d:a9:15:56:e2:c6:f4:2e:94:7b:d9:
        c3:b6:49:07:33:d1:c7:7e:91:dd:53:51:62:23:7d:13:30:72:
        ba:79
-----BEGIN CERTIFICATE-----
MIIC/zCCAmigAwIBAgIBAjANBgkqhkiG9w0BAQUFADCBjDELMAkGA1UEBhMCVVMx
CzAJBgNVBAgTAk1PMREwDwYDVQQHEwhTdCBMb3VpczEYMBYGA1UEChMPV2FzaGlu
Z3RvbiBVbml2MQwwCgYDVQQLEwNNSVIxFDASBgNVBAMTC1N0ZXZlIE1vb3JlMR8w
HQYJKoZIhvcNAQkBFhBzbW9vcmVAd3VzdGwuZWR1MB4XDTA5MTAyNDA0NDQxNVoX
DTEwMTAyNDA0NDQxNVowgYAxCzAJBgNVBAYTAlVTMREwDwYDVQQIEwhJbGxpbm9p
czEQMA4GA1UEBxMHQ2hpY2FnbzEaMBgGA1UEChMRSUhFIEludGVybmF0aW9uYWwx
FTATBgNVBAsTDENvbm5lY3RhdGhvbjEZMBcGA1UEAxMQeGRzdGVzdC5uaXN0Lmdv
djCBnzANBgkqhkiG9w0BAQEFAAOBjQAwgYkCgYEAouuHoih8xTF2FxB6T6WMEHSR
aBwiyTBz0kgEiGs7cAj9OSJOgQpPFKqFLs+EqmIXnq2cUd8vQlKq//vW+Yiz396u
IUe8YcErzChUbeH39U0AOBmzD3HWPDqz4zuattfd0AQHD28IUIe0KeV8tlsrZejh
vmzrP0pYxGTy6FcrD7MCAwEAAaN7MHkwCQYDVR0TBAIwADAsBglghkgBhvhCAQ0E
HxYdT3BlblNTTCBHZW5lcmF0ZWQgQ2VydGlmaWNhdGUwHQYDVR0OBBYEFOkqwws5
dWObjlmrUEMc4Ii/HjZ3MB8GA1UdIwQYMBaAFCM8h8crOPFtBDmFtXanYknrCe88
MA0GCSqGSIb3DQEBBQUAA4GBAJ080c8qNQsdCwJ1FKP3sobZCZxyMXj9qhKuCtpD
h7iasBQZAamDByEmWW+17eHyVgN8SvQ/Vbh5XLmuitdlXPYFKGPWGjiBZd4dcLLt
G5/SZC4spOvKS2CQ9JIAgaL1pGhtqRVW4sb0LpR72cO2SQcz0cd+kd1TUWIjfRMw
crp5
-----END CERTIFICATE-----
